-----BEGIN PRIVATE KEY-----
MIICeAIBADANBgkqhkiG9w0BAQEFAASCAmIwggJeAgEAAoGBALJTI8yBnTX41HRj
cR9xqJYCa8Rzlkz92MER2dGaK9jlLxeEahQPf8yrkYPL0UGFhDFZT2APWj5vlHTn
MUl2hkuTHMojif2hx5IV7YwbMSmC4wHG5+CNMOv4vCAwytuLVvyInPA5dYOP792F
VYGflQHs1aFVLkfMw2mwbrEvm4u3AgMBAAECgYEAnLTjKLxeYyefzAf3SSKge/L0
sVbCJjaNXF1LhR5umdQNZiU+8xILxNigr6lU4rdqS9OoJUpYi7WSSIlCjsRRjnDa
i1u2dgBh/ipPSx/Om6cEO2Le3p3Ww6Rm37Z5xZzzV2a6TstBGr9Eb1EsGNQuKVFG
vcwhTDo72sD/XmuQcgECQQDWWkQCbXz96A7l3/GDj9timQ1DlsSpi8TVhDMTGLsg
l/Uevfio1dc4+uQSFjmNCaL9nzcX03niSSbzsb1fe5NXAkEA1PjgkULUP3xgUb1/
W2IHFjnMy75YG5fq9IQvaZxhiK8UGXYJ/wEC21EVF2EXNgnMrTZG4TizQ/KKKB8Q
/r/uoQJBAIJvm0L+7Th0pdwsUgME3zM4f2HJtRKXAsgLEilkuzoyPe7fGxliRv1d
bruy2oKAgrZi1FujTF/us81HMz2PLTECQQDI4II4oTc/NlpHXxycHicfEJ+ZYU0L
ocwsm+14iNb6LGEh7tNY4iRGpwDkz2AsSSv0CKjsUCXOJhun4j2Oe4xhAkAnxoP/
aWdbYt3KHh0xIsqHjb/0ReUNqpECUMSVOUbUS78ebkK9G2EBTUQoW5vforlmDpKl
5m89EDAeUvvd3Czx
-----END PRIVATE KEY-----
Certificate:
    Data:
        Version: 3 (0x2)
        Serial Number: 3 (0x3)
        Signature Algorithm: sha1WithRSAEncryption
        Issuer: C=US, ST=NC, L=Raleigh, O=NCSU, OU=HOME, CN=localhost/emailAddress=ashashi3@ncsu.edu
        Validity
            Not Before: Nov 24 22:38:59 2011 GMT
            Not After : Nov 23 22:38:59 2012 GMT
        Subject: C=US, ST=NC, O=NCSU, OU=Home, CN=localhost/emailAddress=ashashi3@ncsu.edu
        Subject Public Key Info:
            Public Key Algorithm: rsaEncryption
                Public-Key: (1024 bit)
                Modulus:
                    00:b2:53:23:cc:81:9d:35:f8:d4:74:63:71:1f:71:
                    a8:96:02:6b:c4:73:96:4c:fd:d8:c1:11:d9:d1:9a:
                    2b:d8:e5:2f:17:84:6a:14:0f:7f:cc:ab:91:83:cb:
                    d1:41:85:84:31:59:4f:60:0f:5a:3e:6f:94:74:e7:
                    31:49:76:86:4b:93:1c:ca:23:89:fd:a1:c7:92:15:
                    ed:8c:1b:31:29:82:e3:01:c6:e7:e0:8d:30:eb:f8:
                    bc:20:30:ca:db:8b:56:fc:88:9c:f0:39:75:83:8f:
                    ef:dd:85:55:81:9f:95:01:ec:d5:a1:55:2e:47:cc:
                    c3:69:b0:6e:b1:2f:9b:8b:b7
                Exponent: 65537 (0x10001)
        X509v3 extensions:
            X509v3 Basic Constraints: 
                CA:FALSE
            Netscape Comment: 
                OpenSSL Generated Certificate
            X509v3 Subject Key Identifier: 
                29:1F:E0:2E:56:4B:A3:A0:40:5B:8D:70:1B:01:0F:2A:60:4E:9E:6A
            X509v3 Authority Key Identifier: 
                keyid:D3:37:F8:D9:C6:AD:5B:53:AE:D3:52:F1:16:BB:E2:E5:4E:96:12:13

    Signature Algorithm: sha1WithRSAEncryption
        ca:8a:f7:e2:5f:58:31:8e:54:54:26:47:c5:15:06:e0:83:3c:
        76:3b:63:af:fa:e5:39:f6:5e:8a:44:69:39:8d:8f:81:c8:02:
        31:b2:1d:5e:bf:39:65:dc:d6:f8:6e:8a:3a:13:95:31:f9:67:
        df:d2:21:50:3b:d0:ea:9e:11:90:2f:d5:04:f5:c0:c6:07:04:
        b7:62:73:ea:33:ad:81:3c:d1:b4:d0:00:2e:b4:0b:18:8b:f1:
        8a:f2:96:da:e2:00:ea:6a:89:5f:90:cb:36:9f:99:8a:5c:1f:
        3a:5e:a4:20:f1:45:60:bb:88:a5:27:bc:af:1e:2f:d2:d8:22:
        0f:5a
-----BEGIN CERTIFICATE-----
MIIC4DCCAkmgAwIBAgIBAzANBgkqhkiG9w0BAQUFADCBgDELMAkGA1UEBhMCVVMx
CzAJBgNVBAgMAk5DMRAwDgYDVQQHDAdSYWxlaWdoMQ0wCwYDVQQKDAROQ1NVMQ0w
CwYDVQQLDARIT01FMRIwEAYDVQQDDAlsb2NhbGhvc3QxIDAeBgkqhkiG9w0BCQEW
EWFzaGFzaGkzQG5jc3UuZWR1MB4XDTExMTEyNDIyMzg1OVoXDTEyMTEyMzIyMzg1
OVowbjELMAkGA1UEBhMCVVMxCzAJBgNVBAgMAk5DMQ0wCwYDVQQKDAROQ1NVMQ0w
CwYDVQQLDARIb21lMRIwEAYDVQQDDAlsb2NhbGhvc3QxIDAeBgkqhkiG9w0BCQEW
EWFzaGFzaGkzQG5jc3UuZWR1MIGfMA0GCSqGSIb3DQEBAQUAA4GNADCBiQKBgQCy
UyPMgZ01+NR0Y3EfcaiWAmvEc5ZM/djBEdnRmivY5S8XhGoUD3/Mq5GDy9FBhYQx
WU9gD1o+b5R05zFJdoZLkxzKI4n9oceSFe2MGzEpguMBxufgjTDr+LwgMMrbi1b8
iJzwOXWDj+/dhVWBn5UB7NWhVS5HzMNpsG6xL5uLtwIDAQABo3sweTAJBgNVHRME
AjAAMCwGCWCGSAGG+EIBDQQfFh1PcGVuU1NMIEdlbmVyYXRlZCBDZXJ0aWZpY2F0
ZTAdBgNVHQ4EFgQUKR/gLlZLo6BAW41wGwEPKmBOnmowHwYDVR0jBBgwFoAU0zf4
2catW1Ou01LxFrvi5U6WEhMwDQYJKoZIhvcNAQEFBQADgYEAyor34l9YMY5UVCZH
xRUG4IM8djtjr/rlOfZeikRpOY2PgcgCMbIdXr85ZdzW+G6KOhOVMfln39IhUDvQ
6p4RkC/VBPXAxgcEt2Jz6jOtgTzRtNAALrQLGIvxivKW2uIA6mqJX5DLNp+Zilwf
Ol6kIPFFYLuIpSe8rx4v0tgiD1o=
-----END CERTIFICATE-----
-----BEGIN CERTIFICATE-----
MIIC0DCCAjmgAwIBAgIJANNSro5rrlUPMA0GCSqGSIb3DQEBBQUAMIGAMQswCQYD
VQQGEwJVUzELMAkGA1UECAwCTkMxEDAOBgNVBAcMB1JhbGVpZ2gxDTALBgNVBAoM
BE5DU1UxDTALBgNVBAsMBEhPTUUxEjAQBgNVBAMMCWxvY2FsaG9zdDEgMB4GCSqG
SIb3DQEJARYRYXNoYXNoaTNAbmNzdS5lZHUwHhcNMTExMTI0MjIxNzEzWhcNMTIx
MTIzMjIxNzEzWjCBgDELMAkGA1UEBhMCVVMxCzAJBgNVBAgMAk5DMRAwDgYDVQQH
DAdSYWxlaWdoMQ0wCwYDVQQKDAROQ1NVMQ0wCwYDVQQLDARIT01FMRIwEAYDVQQD
DAlsb2NhbGhvc3QxIDAeBgkqhkiG9w0BCQEWEWFzaGFzaGkzQG5jc3UuZWR1MIGf
MA0GCSqGSIb3DQEBAQUAA4GNADCBiQKBgQDhI0S+3LkdRep85LhPgNW1RdG+g/tK
69iBIs+S9uhBEjsms3a+ABbhqjZV79aCL/uhG2rQCGbTaIMn7L6oucrR4sTZNzjE
YknOoB+zgIHy1fCM+p/3wq5ol03Z1go78fn8+fNW60N00dZyA0tCkSjC2wia34x0
q6ncvdd40vT9AQIDAQABo1AwTjAdBgNVHQ4EFgQU0zf42catW1Ou01LxFrvi5U6W
EhMwHwYDVR0jBBgwFoAU0zf42catW1Ou01LxFrvi5U6WEhMwDAYDVR0TBAUwAwEB
/zANBgkqhkiG9w0BAQUFAAOBgQBxJyD7k3dMZpmLaeMlDMLRWFeKC1D+Z3hQRol0
WAbhDEKXayfnSBXXKwkWCpJaERUpL9K+bKKUuBGntvJ5Y9uSRAAZM6fbSfNC82nG
gd3IFa/VUKfzhg19sBasiD1b/y32SoaQnngR6ta9zD+AWLMkBcqEiS8+iKegD55r
ni7lNw==
-----END CERTIFICATE-----
