-----BEGIN PRIVATE KEY-----
MIICdwIBADANBgkqhkiG9w0BAQEFAASCAmEwggJdAgEAAoGBAORBeO30GVURj4/u
ECICujHMkL0H0KZhv3A00ZumsK2HnNYskugE+W9umiecqyTWcW0ws64Cml8/i37r
74+xaeaUAL0PTb5nUNlbn882N9tT1JAeiUSRiZ/RSOMgkrNAxFQw8M0m2kz8A2oY
fDf1b4dV1BKi8K/2dY6kOQGmHZCHAgMBAAECgYEAnI3jeaHQti4jP17TJeClAH8E
TwLLMzMb8MPpeE6uI3c+NQ/Beu3ef3VmugCUyeFjTrb2pkUWyHl3HgiI+Q+AR+Bi
Wi3owsOnb6QGlyb3tU1A+gpBXvRNQlVWrXYB8U+FwpJ+JkmJRK3Oz4Abf8KCe+x4
4MrtO44NbhdWrq3eoFECQQD0IrZQuGTNCzivwXLhK8OmTyFRrzVzjHPX392ULAf0
Tdw7Z0bp75jp4L0s7m4z8gl7MqSs21xq0ilVlsmwOJtzAkEA71kzBIEAu2rAyLgg
rtscsg2TRtjA72DJ9Mer75147ugzl6FfGirI5ddJP6TMK6i3QaE0tsxD7uljnfPG
JOgZnQJAMB8ffK28AMazd8FT2Zp8yC1UzfsROCN5OhYAYRKExt0KChODYN0/cOpB
n7entUmCIOyMlR3wC4Y9a4d7XebqjQJBAIvgOSx8p4zfymKDGLaXXqG/xT42FirP
Cbd/qT+Ta8VS9jO7HvUP4/BObIRBLwCkzNQR/diGb30D8C+y8y1GZxECQHrQpfsE
YbBB7kX01+diLRbOxkx13qievTVlJ9EJLwio4/5ifQHEPRDrc83fVsg9zr1Uste3
jOJBbCBxitn+8Wc=
-----END PRIVATE KEY-----
Certificate:
    Data:
        Version: 3 (0x2)
        Serial Number: 4 (0x4)
        Signature Algorithm: sha1WithRSAEncryption
        Issuer: C=US, ST=NC, L=Raleigh, O=NCSU, OU=HOME, CN=localhost/emailAddress=ashashi3@ncsu.edu
        Validity
            Not Before: Nov 24 22:39:40 2011 GMT
            Not After : Nov 23 22:39:40 2012 GMT
        Subject: C=US, ST=NC, O=NCSU, OU=HOME, CN=localhost/emailAddress=ashdharan@gmail.com
        Subject Public Key Info:
            Public Key Algorithm: rsaEncryption
                Public-Key: (1024 bit)
                Modulus:
                    00:e4:41:78:ed:f4:19:55:11:8f:8f:ee:10:22:02:
                    ba:31:cc:90:bd:07:d0:a6:61:bf:70:34:d1:9b:a6:
                    b0:ad:87:9c:d6:2c:92:e8:04:f9:6f:6e:9a:27:9c:
                    ab:24:d6:71:6d:30:b3:ae:02:9a:5f:3f:8b:7e:eb:
                    ef:8f:b1:69:e6:94:00:bd:0f:4d:be:67:50:d9:5b:
                    9f:cf:36:37:db:53:d4:90:1e:89:44:91:89:9f:d1:
                    48:e3:20:92:b3:40:c4:54:30:f0:cd:26:da:4c:fc:
                    03:6a:18:7c:37:f5:6f:87:55:d4:12:a2:f0:af:f6:
                    75:8e:a4:39:01:a6:1d:90:87
                Exponent: 65537 (0x10001)
        X509v3 extensions:
            X509v3 Basic Constraints: 
                CA:FALSE
            Netscape Comment: 
                OpenSSL Generated Certificate
            X509v3 Subject Key Identifier: 
                43:1A:A3:12:72:DA:38:CF:9E:4C:26:8D:1A:4F:AB:2A:A3:91:4A:42
            X509v3 Authority Key Identifier: 
                keyid:D3:37:F8:D9:C6:AD:5B:53:AE:D3:52:F1:16:BB:E2:E5:4E:96:12:13

    Signature Algorithm: sha1WithRSAEncryption
        60:b7:8a:1e:50:39:70:90:1c:98:10:d8:4c:3c:00:ac:86:6b:
        13:10:cd:c3:2e:9f:ab:38:33:60:90:b4:73:eb:8a:0f:bf:d0:
        74:b2:6b:79:f0:1e:8a:76:88:a4:b6:43:99:6e:a3:75:05:c8:
        39:92:85:d9:2a:12:b4:9f:8c:20:c9:27:a8:34:97:a9:55:6f:
        81:28:eb:e5:98:27:52:6c:0f:2e:dd:ad:50:6f:52:db:42:a0:
        8d:03:7c:e7:f6:dc:7d:b4:d8:0c:ba:b5:0e:fc:3d:6d:72:8b:
        21:43:19:74:6f:6f:1e:9e:1c:46:c6:25:8e:d5:ae:6e:c6:15:
        e7:b8
-----BEGIN CERTIFICATE-----
MIIC4jCCAkugAwIBAgIBBDANBgkqhkiG9w0BAQUFADCBgDELMAkGA1UEBhMCVVMx
CzAJBgNVBAgMAk5DMRAwDgYDVQQHDAdSYWxlaWdoMQ0wCwYDVQQKDAROQ1NVMQ0w
CwYDVQQLDARIT01FMRIwEAYDVQQDDAlsb2NhbGhvc3QxIDAeBgkqhkiG9w0BCQEW
EWFzaGFzaGkzQG5jc3UuZWR1MB4XDTExMTEyNDIyMzk0MFoXDTEyMTEyMzIyMzk0
MFowcDELMAkGA1UEBhMCVVMxCzAJBgNVBAgMAk5DMQ0wCwYDVQQKDAROQ1NVMQ0w
CwYDVQQLDARIT01FMRIwEAYDVQQDDAlsb2NhbGhvc3QxIjAgBgkqhkiG9w0BCQEW
E2FzaGRoYXJhbkBnbWFpbC5jb20wgZ8wDQYJKoZIhvcNAQEBBQADgY0AMIGJAoGB
AORBeO30GVURj4/uECICujHMkL0H0KZhv3A00ZumsK2HnNYskugE+W9umiecqyTW
cW0ws64Cml8/i37r74+xaeaUAL0PTb5nUNlbn882N9tT1JAeiUSRiZ/RSOMgkrNA
xFQw8M0m2kz8A2oYfDf1b4dV1BKi8K/2dY6kOQGmHZCHAgMBAAGjezB5MAkGA1Ud
EwQCMAAwLAYJYIZIAYb4QgENBB8WHU9wZW5TU0wgR2VuZXJhdGVkIENlcnRpZmlj
YXRlMB0GA1UdDgQWBBRDGqMScto4z55MJo0aT6sqo5FKQjAfBgNVHSMEGDAWgBTT
N/jZxq1bU67TUvEWu+LlTpYSEzANBgkqhkiG9w0BAQUFAAOBgQBgt4oeUDlwkByY
ENhMPACshmsTEM3DLp+rODNgkLRz64oPv9B0smt58B6KdoiktkOZbqN1Bcg5koXZ
KhK0n4wgySeoNJepVW+BKOvlmCdSbA8u3a1Qb1LbQqCNA3zn9tx9tNgMurUO/D1t
coshQxl0b28enhxGxiWO1a5uxhXnuA==
-----END CERTIFICATE-----
-----BEGIN CERTIFICATE-----
MIIC0DCCAjmgAwIBAgIJANNSro5rrlUPMA0GCSqGSIb3DQEBBQUAMIGAMQswCQYD
VQQGEwJVUzELMAkGA1UECAwCTkMxEDAOBgNVBAcMB1JhbGVpZ2gxDTALBgNVBAoM
BE5DU1UxDTALBgNVBAsMBEhPTUUxEjAQBgNVBAMMCWxvY2FsaG9zdDEgMB4GCSqG
SIb3DQEJARYRYXNoYXNoaTNAbmNzdS5lZHUwHhcNMTExMTI0MjIxNzEzWhcNMTIx
MTIzMjIxNzEzWjCBgDELMAkGA1UEBhMCVVMxCzAJBgNVBAgMAk5DMRAwDgYDVQQH
DAdSYWxlaWdoMQ0wCwYDVQQKDAROQ1NVMQ0wCwYDVQQLDARIT01FMRIwEAYDVQQD
DAlsb2NhbGhvc3QxIDAeBgkqhkiG9w0BCQEWEWFzaGFzaGkzQG5jc3UuZWR1MIGf
MA0GCSqGSIb3DQEBAQUAA4GNADCBiQKBgQDhI0S+3LkdRep85LhPgNW1RdG+g/tK
69iBIs+S9uhBEjsms3a+ABbhqjZV79aCL/uhG2rQCGbTaIMn7L6oucrR4sTZNzjE
YknOoB+zgIHy1fCM+p/3wq5ol03Z1go78fn8+fNW60N00dZyA0tCkSjC2wia34x0
q6ncvdd40vT9AQIDAQABo1AwTjAdBgNVHQ4EFgQU0zf42catW1Ou01LxFrvi5U6W
EhMwHwYDVR0jBBgwFoAU0zf42catW1Ou01LxFrvi5U6WEhMwDAYDVR0TBAUwAwEB
/zANBgkqhkiG9w0BAQUFAAOBgQBxJyD7k3dMZpmLaeMlDMLRWFeKC1D+Z3hQRol0
WAbhDEKXayfnSBXXKwkWCpJaERUpL9K+bKKUuBGntvJ5Y9uSRAAZM6fbSfNC82nG
gd3IFa/VUKfzhg19sBasiD1b/y32SoaQnngR6ta9zD+AWLMkBcqEiS8+iKegD55r
ni7lNw==
-----END CERTIFICATE-----
